target datalayout = "e-m:e-p270:32:32-p271:32:32-p272:64:64-i64:64-i128:128-f80:128-n8:16:32:64-S128"
target triple = "x86_64-pc-linux-gnu"

; Function Attrs: nounwind uwtable
define internal void @_blot_mask_sockets(i32 noundef %0, i32 noundef %1, ptr noundef %2, i16 noundef zeroext %3, i16 noundef zeroext %4, i16 noundef zeroext %5, ptr noundef %6) #0 {
  %8 = alloca i32, align 4
  %9 = alloca i32, align 4
  %10 = alloca ptr, align 8
  %11 = alloca i16, align 2
  %12 = alloca i16, align 2
  %13 = alloca i16, align 2
  %14 = alloca ptr, align 8
  %15 = alloca i16, align 2
  %16 = alloca i16, align 2
  %17 = alloca i16, align 2
  %18 = alloca i32, align 4
  %19 = alloca i32, align 4
  %20 = alloca i16, align 2
  store i32 %0, ptr %8, align 4
  store i32 %1, ptr %9, align 4
  store ptr %2, ptr %10, align 8
  store i16 %3, ptr %11, align 2
  store i16 %4, ptr %12, align 2
  store i16 %5, ptr %13, align 2
  store ptr %6, ptr %14, align 8
  call void @llvm.lifetime.start.p0(i64 2, ptr %15) #7
  call void @llvm.lifetime.start.p0(i64 2, ptr %16) #7
  call void @llvm.lifetime.start.p0(i64 2, ptr %17) #7
  store i16 0, ptr %17, align 2
  call void @llvm.lifetime.start.p0(i64 4, ptr %18) #7
  %21 = load ptr, ptr %10, align 8
  %22 = load i32, ptr %9, align 4
  %23 = zext i32 %22 to i64
  %24 = getelementptr inbounds nuw ptr, ptr %21, i64 %23
  %25 = load ptr, ptr %24, align 8
  %26 = icmp ne ptr %25, null
  br i1 %26, label %28, label %27

27:                                               ; preds = %7
  store i32 1, ptr %19, align 4
  br label %103

28:                                               ; preds = %7
  %29 = load ptr, ptr %14, align 8
  %30 = call i64 @slurm_bit_size(ptr noundef %29)
  %31 = load i16, ptr %11, align 2
  %32 = zext i16 %31 to i64
  %33 = sdiv i64 %30, %32
  %34 = trunc i64 %33 to i32
  store i32 %34, ptr %18, align 4
  %35 = load i32, ptr %18, align 4
  %36 = icmp sle i32 %35, 0
  br i1 %36, label %37, label %38

37:                                               ; preds = %28
  store i32 1, ptr %18, align 4
  br label %38

38:                                               ; preds = %37, %28
  %39 = load ptr, ptr %10, align 8
  %40 = load i32, ptr %9, align 4
  %41 = zext i32 %40 to i64
  %42 = getelementptr inbounds nuw ptr, ptr %39, i64 %41
  %43 = load ptr, ptr %42, align 8
  %44 = call i64 @slurm_bit_size(ptr noundef %43)
  %45 = trunc i64 %44 to i16
  store i16 %45, ptr %17, align 2
  store i16 0, ptr %15, align 2
  br label %46

46:                                               ; preds = %99, %38
  %47 = load i16, ptr %15, align 2
  %48 = zext i16 %47 to i32
  %49 = load i16, ptr %17, align 2
  %50 = zext i16 %49 to i32
  %51 = icmp slt i32 %48, %50
  br i1 %51, label %52, label %102

52:                                               ; preds = %46
  %53 = load ptr, ptr %10, align 8
  %54 = load i32, ptr %9, align 4
  %55 = zext i32 %54 to i64
  %56 = getelementptr inbounds nuw ptr, ptr %53, i64 %55
  %57 = load ptr, ptr %56, align 8
  %58 = load i16, ptr %15, align 2
  %59 = zext i16 %58 to i64
  %60 = call i32 @slurm_bit_test(ptr noundef %57, i64 noundef %59)
  %61 = icmp ne i32 %60, 0
  br i1 %61, label %62, label %98

62:                                               ; preds = %52
  call void @llvm.lifetime.start.p0(i64 2, ptr %20) #7
  %63 = load i16, ptr %15, align 2
  %64 = zext i16 %63 to i32
  %65 = load i32, ptr %18, align 4
  %66 = sdiv i32 %64, %65
  %67 = load i32, ptr %18, align 4
  %68 = mul nsw i32 %66, %67
  %69 = trunc i32 %68 to i16
  store i16 %69, ptr %20, align 2
  %70 = load i16, ptr %20, align 2
  store i16 %70, ptr %16, align 2
  br label %71

71:                                               ; preds = %94, %62
  %72 = load i16, ptr %16, align 2
  %73 = zext i16 %72 to i32
  %74 = load i16, ptr %20, align 2
  %75 = zext i16 %74 to i32
  %76 = load i32, ptr %18, align 4
  %77 = add nsw i32 %75, %76
  %78 = icmp slt i32 %73, %77
  br i1 %78, label %79, label %97

79:                                               ; preds = %71
  %80 = load ptr, ptr %14, align 8
  %81 = load i16, ptr %16, align 2
  %82 = zext i16 %81 to i64
  %83 = call i32 @slurm_bit_test(ptr noundef %80, i64 noundef %82)
  %84 = icmp ne i32 %83, 0
  br i1 %84, label %85, label %93

85:                                               ; preds = %79
  %86 = load ptr, ptr %10, align 8
  %87 = load i32, ptr %9, align 4
  %88 = zext i32 %87 to i64
  %89 = getelementptr inbounds nuw ptr, ptr %86, i64 %88
  %90 = load ptr, ptr %89, align 8
  %91 = load i16, ptr %16, align 2
  %92 = zext i16 %91 to i64
  call void @slurm_bit_set(ptr noundef %90, i64 noundef %92)
  br label %93

93:                                               ; preds = %85, %79
  br label %94

94:                                               ; preds = %93
  %95 = load i16, ptr %16, align 2
  %96 = add i16 %95, 1
  store i16 %96, ptr %16, align 2
  br label %71, !llvm.loop !47

97:                                               ; preds = %71
  call void @llvm.lifetime.end.p0(i64 2, ptr %20) #7
  br label %98

98:                                               ; preds = %97, %52
  br label %99

99:                                               ; preds = %98
  %100 = load i16, ptr %15, align 2
  %101 = add i16 %100, 1
  store i16 %101, ptr %15, align 2
  br label %46, !llvm.loop !48

102:                                              ; preds = %46
  store i32 0, ptr %19, align 4
  br label %103

103:                                              ; preds = %102, %27
  call void @llvm.lifetime.end.p0(i64 4, ptr %18) #7
  call void @llvm.lifetime.end.p0(i64 2, ptr %17) #7
  call void @llvm.lifetime.end.p0(i64 2, ptr %16) #7
  call void @llvm.lifetime.end.p0(i64 2, ptr %15) #7
  %104 = load i32, ptr %19, align 4
  switch i32 %104, label %106 [
    i32 0, label %105
    i32 1, label %105
  ]

105:                                              ; preds = %103, %103
  ret void

106:                                              ; preds = %103
  unreachable
}

; Function Attrs: nounwind uwtable
define internal void @_blot_mask(ptr noundef %0, ptr noundef %1, i16 noundef zeroext %2) #0 {
  %4 = alloca ptr, align 8
  %5 = alloca ptr, align 8
  %6 = alloca i16, align 2
  %7 = alloca i16, align 2
  %8 = alloca i16, align 2
  %9 = alloca i16, align 2
  %10 = alloca i32, align 4
  %11 = alloca i32, align 4
  %12 = alloca i16, align 2
  store ptr %0, ptr %4, align 8
  store ptr %1, ptr %5, align 8
  store i16 %2, ptr %6, align 2
  call void @llvm.lifetime.start.p0(i64 2, ptr %7) #7
  call void @llvm.lifetime.start.p0(i64 2, ptr %8) #7
  call void @llvm.lifetime.start.p0(i64 2, ptr %9) #7
  store i16 0, ptr %9, align 2
  call void @llvm.lifetime.start.p0(i64 4, ptr %10) #7
  store i32 -1, ptr %10, align 4
  %13 = load ptr, ptr %4, align 8
  %14 = icmp ne ptr %13, null
  br i1 %14, label %16, label %15

15:                                               ; preds = %3
  store i32 1, ptr %11, align 4
  br label %80

16:                                               ; preds = %3
  %17 = load ptr, ptr %4, align 8
  %18 = call i64 @slurm_bit_size(ptr noundef %17)
  %19 = trunc i64 %18 to i16
  store i16 %19, ptr %9, align 2
  store i16 0, ptr %7, align 2
  br label %20

20:                                               ; preds = %76, %16
  %21 = load i16, ptr %7, align 2
  %22 = zext i16 %21 to i32
  %23 = load i16, ptr %9, align 2
  %24 = zext i16 %23 to i32
  %25 = icmp slt i32 %22, %24
  br i1 %25, label %26, label %79

26:                                               ; preds = %20
  %27 = load ptr, ptr %4, align 8
  %28 = load i16, ptr %7, align 2
  %29 = zext i16 %28 to i64
  %30 = call i32 @slurm_bit_test(ptr noundef %27, i64 noundef %29)
  %31 = icmp ne i32 %30, 0
  br i1 %31, label %32, label %75

32:                                               ; preds = %26
  call void @llvm.lifetime.start.p0(i64 2, ptr %12) #7
  %33 = load i16, ptr %7, align 2
  %34 = zext i16 %33 to i32
  %35 = load i16, ptr %6, align 2
  %36 = zext i16 %35 to i32
  %37 = sdiv i32 %34, %36
  %38 = load i16, ptr %6, align 2
  %39 = zext i16 %38 to i32
  %40 = mul nsw i32 %37, %39
  %41 = trunc i32 %40 to i16
  store i16 %41, ptr %12, align 2
  %42 = load i16, ptr %12, align 2
  %43 = zext i16 %42 to i32
  %44 = load i32, ptr %10, align 4
  %45 = icmp ne i32 %43, %44
  br i1 %45, label %46, label %74

46:                                               ; preds = %32
  %47 = load i16, ptr %12, align 2
  store i16 %47, ptr %8, align 2
  br label %48

48:                                               ; preds = %68, %46
  %49 = load i16, ptr %8, align 2
  %50 = zext i16 %49 to i32
  %51 = load i16, ptr %12, align 2
  %52 = zext i16 %51 to i32
  %53 = load i16, ptr %6, align 2
  %54 = zext i16 %53 to i32
  %55 = add nsw i32 %52, %54
  %56 = icmp slt i32 %50, %55
  br i1 %56, label %57, label %71

57:                                               ; preds = %48
  %58 = load ptr, ptr %5, align 8
  %59 = load i16, ptr %8, align 2
  %60 = zext i16 %59 to i64
  %61 = call i32 @slurm_bit_test(ptr noundef %58, i64 noundef %60)
  %62 = icmp ne i32 %61, 0
  br i1 %62, label %63, label %67

63:                                               ; preds = %57
  %64 = load ptr, ptr %4, align 8
  %65 = load i16, ptr %8, align 2
  %66 = zext i16 %65 to i64
  call void @slurm_bit_set(ptr noundef %64, i64 noundef %66)
  br label %67

67:                                               ; preds = %63, %57
  br label %68

68:                                               ; preds = %67
  %69 = load i16, ptr %8, align 2
  %70 = add i16 %69, 1
  store i16 %70, ptr %8, align 2
  br label %48, !llvm.loop !45

71:                                               ; preds = %48
  %72 = load i16, ptr %12, align 2
  %73 = zext i16 %72 to i32
  store i32 %73, ptr %10, align 4
  br label %74

74:                                               ; preds = %71, %32
  call void @llvm.lifetime.end.p0(i64 2, ptr %12) #7
  br label %75

75:                                               ; preds = %74, %26
  br label %76

76:                                               ; preds = %75
  %77 = load i16, ptr %7, align 2
  %78 = add i16 %77, 1
  store i16 %78, ptr %7, align 2
  br label %20, !llvm.loop !46

79:                                               ; preds = %20
  store i32 0, ptr %11, align 4
  br label %80

80:                                               ; preds = %79, %15
  call void @llvm.lifetime.end.p0(i64 4, ptr %10) #7
  call void @llvm.lifetime.end.p0(i64 2, ptr %9) #7
  call void @llvm.lifetime.end.p0(i64 2, ptr %8) #7
  call void @llvm.lifetime.end.p0(i64 2, ptr %7) #7
  %81 = load i32, ptr %11, align 4
  switch i32 %81, label %83 [
    i32 0, label %82
    i32 1, label %82
  ]

82:                                               ; preds = %80, %80
  ret void

83:                                               ; preds = %80
  unreachable
}

; Function Attrs: nounwind uwtable
define internal void @_expand_masks(i16 noundef zeroext %0, i32 noundef %1, ptr noundef %2, i16 noundef zeroext %3, i16 noundef zeroext %4, i16 noundef zeroext %5, ptr noundef %6) #0 {
  %8 = alloca i16, align 2
  %9 = alloca i32, align 4
  %10 = alloca ptr, align 8
  %11 = alloca i16, align 2
  %12 = alloca i16, align 2
  %13 = alloca i16, align 2
  %14 = alloca ptr, align 8
  %15 = alloca i32, align 4
  %16 = alloca i32, align 4
  store i16 %0, ptr %8, align 2
  store i32 %1, ptr %9, align 4
  store ptr %2, ptr %10, align 8
  store i16 %3, ptr %11, align 2
  store i16 %4, ptr %12, align 2
  store i16 %5, ptr %13, align 2
  store ptr %6, ptr %14, align 8
  call void @llvm.lifetime.start.p0(i64 4, ptr %15) #7
  %17 = load i16, ptr %8, align 2
  %18 = zext i16 %17 to i32
  %19 = and i32 %18, 2
  %20 = icmp ne i32 %19, 0
  br i1 %20, label %21, label %22

21:                                               ; preds = %7
  store i32 1, ptr %16, align 4
  br label %80

22:                                               ; preds = %7
  %23 = load i16, ptr %8, align 2
  %24 = zext i16 %23 to i32
  %25 = and i32 %24, 4
  %26 = icmp ne i32 %25, 0
  br i1 %26, label %27, label %49

27:                                               ; preds = %22
  %28 = load i16, ptr %13, align 2
  %29 = zext i16 %28 to i32
  %30 = icmp slt i32 %29, 2
  br i1 %30, label %31, label %32

31:                                               ; preds = %27
  store i32 1, ptr %16, align 4
  br label %80

32:                                               ; preds = %27
  store i32 0, ptr %15, align 4
  br label %33

33:                                               ; preds = %45, %32
  %34 = load i32, ptr %15, align 4
  %35 = load i32, ptr %9, align 4
  %36 = icmp ult i32 %34, %35
  br i1 %36, label %37, label %48

37:                                               ; preds = %33
  %38 = load ptr, ptr %10, align 8
  %39 = load i32, ptr %15, align 4
  %40 = zext i32 %39 to i64
  %41 = getelementptr inbounds nuw ptr, ptr %38, i64 %40
  %42 = load ptr, ptr %41, align 8
  %43 = load ptr, ptr %14, align 8
  %44 = load i16, ptr %13, align 2
  call void @_blot_mask(ptr noundef %42, ptr noundef %43, i16 noundef zeroext %44)
  br label %45

45:                                               ; preds = %37
  %46 = load i32, ptr %15, align 4
  %47 = add i32 %46, 1
  store i32 %47, ptr %15, align 4
  br label %33, !llvm.loop !43

48:                                               ; preds = %33
  store i32 1, ptr %16, align 4
  br label %80

49:                                               ; preds = %22
  %50 = load i16, ptr %8, align 2
  %51 = zext i16 %50 to i32
  %52 = and i32 %51, 8
  %53 = icmp ne i32 %52, 0
  br i1 %53, label %54, label %79

54:                                               ; preds = %49
  %55 = load i16, ptr %13, align 2
  %56 = zext i16 %55 to i32
  %57 = load i16, ptr %12, align 2
  %58 = zext i16 %57 to i32
  %59 = mul nsw i32 %56, %58
  %60 = icmp slt i32 %59, 2
  br i1 %60, label %61, label %62

61:                                               ; preds = %54
  store i32 1, ptr %16, align 4
  br label %80

62:                                               ; preds = %54
  store i32 0, ptr %15, align 4
  br label %63

63:                                               ; preds = %75, %62
  %64 = load i32, ptr %15, align 4
  %65 = load i32, ptr %9, align 4
  %66 = icmp ult i32 %64, %65
  br i1 %66, label %67, label %78

67:                                               ; preds = %63
  %68 = load i32, ptr %9, align 4
  %69 = load i32, ptr %15, align 4
  %70 = load ptr, ptr %10, align 8
  %71 = load i16, ptr %11, align 2
  %72 = load i16, ptr %12, align 2
  %73 = load i16, ptr %13, align 2
  %74 = load ptr, ptr %14, align 8
  call void @_blot_mask_sockets(i32 noundef %68, i32 noundef %69, ptr noundef %70, i16 noundef zeroext %71, i16 noundef zeroext %72, i16 noundef zeroext %73, ptr noundef %74)
  br label %75

75:                                               ; preds = %67
  %76 = load i32, ptr %15, align 4
  %77 = add i32 %76, 1
  store i32 %77, ptr %15, align 4
  br label %63, !llvm.loop !44

78:                                               ; preds = %63
  store i32 1, ptr %16, align 4
  br label %80

79:                                               ; preds = %49
  store i32 0, ptr %16, align 4
  br label %80

80:                                               ; preds = %79, %78, %61, %48, %31, %21
  call void @llvm.lifetime.end.p0(i64 4, ptr %15) #7
  %81 = load i32, ptr %16, align 4
  switch i32 %81, label %83 [
    i32 0, label %82
    i32 1, label %82
  ]

82:                                               ; preds = %80, %80
  ret void

83:                                               ; preds = %80
  unreachable
}