; Function Attrs: nounwind uwtable
define internal fastcc void @_expand_masks(i16 noundef zeroext %0, i32 noundef range(i32 0, 65536) %1, ptr noundef readonly captures(none) %2, i16 noundef zeroext %3, i16 noundef zeroext %4, i16 noundef zeroext %5, ptr noundef %6) unnamed_addr #0 {
  %8 = zext i16 %0 to i32
  %9 = and i32 %8, 2
  %.not = icmp eq i32 %9, 0
  br i1 %.not, label %10, label %.loopexit

10:                                               ; preds = %7
  %11 = and i32 %8, 4
  %.not23 = icmp eq i32 %11, 0
  br i1 %.not23, label %36, label %12

12:                                               ; preds = %10
  %13 = icmp ugt i16 %5, 1
  %14 = icmp ne i32 %1, 0
  %or.cond = and i1 %13, %14
  br i1 %or.cond, label %.lr.ph, label %.loopexit

.lr.ph:                                           ; preds = %12
  %15 = zext i16 %5 to i32
  %wide.trip.count = zext nneg i32 %1 to i64
  br label %16

16:                                               ; preds = %.lr.ph, %_blot_mask.exit
  %indvars.iv = phi i64 [ 0, %.lr.ph ], [ %indvars.iv.next, %_blot_mask.exit ]
  %17 = getelementptr inbounds nuw ptr, ptr %2, i64 %indvars.iv
  %18 = load ptr, ptr %17, align 8
  %.not.i = icmp eq ptr %18, null
  br i1 %.not.i, label %_blot_mask.exit, label %19

19:                                               ; preds = %16
  %20 = tail call i64 @slurm_bit_size(ptr noundef nonnull %18) #7
  %21 = and i64 %20, 65535
  %.not34.i = icmp eq i64 %21, 0
  br i1 %.not34.i, label %_blot_mask.exit, label %.lr.ph33.i

.lr.ph33.i:                                       ; preds = %19, %.loopexit.i
  %indvars.iv.i = phi i64 [ %indvars.iv.next.i, %.loopexit.i ], [ 0, %19 ]
  %.02131.i = phi i32 [ %.2.i, %.loopexit.i ], [ -1, %19 ]
  %22 = tail call i32 @slurm_bit_test(ptr noundef nonnull %18, i64 noundef %indvars.iv.i) #7
  %.not26.i = icmp eq i32 %22, 0
  br i1 %.not26.i, label %.loopexit.i, label %23

23:                                               ; preds = %.lr.ph33.i
  %24 = trunc nuw i64 %indvars.iv.i to i16
  %25 = urem i16 %24, %5
  %26 = sub nuw i16 %24, %25
  %27 = zext i16 %26 to i32
  %.not27.i = icmp eq i32 %.02131.i, %27
  br i1 %.not27.i, label %.loopexit.i, label %.lr.ph.preheader.i

.lr.ph.preheader.i:                               ; preds = %23
  %28 = add nuw nsw i32 %27, %15
  br label %.lr.ph.i

.lr.ph.i:                                         ; preds = %32, %.lr.ph.preheader.i
  %.02230.i = phi i16 [ %33, %32 ], [ %26, %.lr.ph.preheader.i ]
  %29 = zext i16 %.02230.i to i64
  %30 = tail call i32 @slurm_bit_test(ptr noundef %6, i64 noundef %29) #7
  %.not28.i = icmp eq i32 %30, 0
  br i1 %.not28.i, label %32, label %31

31:                                               ; preds = %.lr.ph.i
  tail call void @slurm_bit_set(ptr noundef nonnull %18, i64 noundef %29) #7
  br label %32

32:                                               ; preds = %31, %.lr.ph.i
  %33 = add i16 %.02230.i, 1
  %34 = zext i16 %33 to i32
  %35 = icmp samesign ugt i32 %28, %34
  br i1 %35, label %.lr.ph.i, label %.loopexit.i, !llvm.loop !41

.loopexit.i:                                      ; preds = %32, %23, %.lr.ph33.i
  %.2.i = phi i32 [ %.02131.i, %.lr.ph33.i ], [ %.02131.i, %23 ], [ %27, %32 ]
  %indvars.iv.next.i = add nuw nsw i64 %indvars.iv.i, 1
  %exitcond.not.i = icmp eq i64 %indvars.iv.next.i, %21
  br i1 %exitcond.not.i, label %_blot_mask.exit, label %.lr.ph33.i, !llvm.loop !42

_blot_mask.exit:                                  ; preds = %.loopexit.i, %16, %19
  %indvars.iv.next = add nuw nsw i64 %indvars.iv, 1
  %exitcond.not = icmp eq i64 %indvars.iv.next, %wide.trip.count
  br i1 %exitcond.not, label %.loopexit, label %16, !llvm.loop !43

36:                                               ; preds = %10
  %37 = and i32 %8, 8
  %.not24 = icmp eq i32 %37, 0
  br i1 %.not24, label %.loopexit, label %38

38:                                               ; preds = %36
  %39 = zext i16 %5 to i32
  %40 = zext i16 %4 to i32
  %41 = mul nuw nsw i32 %39, %40
  %42 = icmp samesign ugt i32 %41, 1
  %43 = icmp ne i32 %1, 0
  %or.cond40 = and i1 %42, %43
  br i1 %or.cond40, label %.lr.ph39, label %.loopexit

.lr.ph39:                                         ; preds = %38
  %44 = zext i16 %3 to i64
  %wide.trip.count47 = zext nneg i32 %1 to i64
  br label %45

45:                                               ; preds = %.lr.ph39, %_blot_mask_sockets.exit
  %indvars.iv44 = phi i64 [ 0, %.lr.ph39 ], [ %indvars.iv.next45, %_blot_mask_sockets.exit ]
  %46 = getelementptr inbounds nuw ptr, ptr %2, i64 %indvars.iv44
  %47 = load ptr, ptr %46, align 8
  %.not.i25 = icmp eq ptr %47, null
  br i1 %.not.i25, label %_blot_mask_sockets.exit, label %48

48:                                               ; preds = %45
  %49 = tail call i64 @slurm_bit_size(ptr noundef %6) #7
  %50 = sdiv i64 %49, %44
  %51 = trunc i64 %50 to i32
  %spec.store.select.i = tail call i32 @llvm.smax.i32(i32 %51, i32 1)
  %52 = load ptr, ptr %46, align 8
  %53 = tail call i64 @slurm_bit_size(ptr noundef %52) #7
  %54 = and i64 %53, 65535
  %.not33.i = icmp eq i64 %54, 0
  br i1 %.not33.i, label %_blot_mask_sockets.exit, label %.lr.ph32.i

.lr.ph32.i:                                       ; preds = %48, %.loopexit.i32
  %indvars.iv.i27 = phi i64 [ %indvars.iv.next.i33, %.loopexit.i32 ], [ 0, %48 ]
  %55 = load ptr, ptr %46, align 8
  %56 = tail call i32 @slurm_bit_test(ptr noundef %55, i64 noundef %indvars.iv.i27) #7
  %.not27.i28 = icmp eq i32 %56, 0
  br i1 %.not27.i28, label %.loopexit.i32, label %.lr.ph.preheader.i29

.lr.ph.preheader.i29:                             ; preds = %.lr.ph32.i
  %indvars43 = trunc i64 %indvars.iv.i27 to i32
  %57 = urem i32 %indvars43, %spec.store.select.i
  %58 = trunc nuw i32 %57 to i16
  %59 = trunc nuw i64 %indvars.iv.i27 to i16
  %60 = sub i16 %59, %58
  %61 = zext i16 %60 to i32
  %62 = add nuw nsw i32 %spec.store.select.i, %61
  br label %.lr.ph.i30

.lr.ph.i30:                                       ; preds = %67, %.lr.ph.preheader.i29
  %.02530.i = phi i16 [ %68, %67 ], [ %60, %.lr.ph.preheader.i29 ]
  %63 = zext i16 %.02530.i to i64
  %64 = tail call i32 @slurm_bit_test(ptr noundef %6, i64 noundef %63) #7
  %.not28.i31 = icmp eq i32 %64, 0
  br i1 %.not28.i31, label %67, label %65

65:                                               ; preds = %.lr.ph.i30
  %66 = load ptr, ptr %46, align 8
  tail call void @slurm_bit_set(ptr noundef %66, i64 noundef %63) #7
  br label %67

67:                                               ; preds = %65, %.lr.ph.i30
  %68 = add i16 %.02530.i, 1
  %69 = zext i16 %68 to i32
  %70 = icmp samesign ugt i32 %62, %69
  br i1 %70, label %.lr.ph.i30, label %.loopexit.i32, !llvm.loop !44

.loopexit.i32:                                    ; preds = %67, %.lr.ph32.i
  %indvars.iv.next.i33 = add nuw nsw i64 %indvars.iv.i27, 1
  %exitcond.not.i34 = icmp eq i64 %indvars.iv.next.i33, %54
  br i1 %exitcond.not.i34, label %_blot_mask_sockets.exit, label %.lr.ph32.i, !llvm.loop !45

_blot_mask_sockets.exit:                          ; preds = %.loopexit.i32, %45, %48
  %indvars.iv.next45 = add nuw nsw i64 %indvars.iv44, 1
  %exitcond48.not = icmp eq i64 %indvars.iv.next45, %wide.trip.count47
  br i1 %exitcond48.not, label %.loopexit, label %45, !llvm.loop !46

.loopexit:                                        ; preds = %_blot_mask.exit, %_blot_mask_sockets.exit, %36, %38, %12, %7
  ret void
}